target datalayout = "e-m:e-p270:32:32-p271:32:32-p272:64:64-i64:64-i128:128-f80:128-n8:16:32:64-S128"
target triple = "x86_64-pc-linux-gnu"

%"class.folly::EventHandler" = type { ptr, %"class.folly::EventBaseEvent", ptr }
%"class.folly::EventBaseEvent" = type { %struct.event, ptr, ptr, ptr, %"struct.folly::EventCallback" }
%struct.event = type { %struct.event_callback, %union.anon.0, i32, ptr, %union.anon.2, i16, i16, %struct.timeval }
%struct.event_callback = type { %struct.anon, i16, i8, i8, %union.anon, ptr }
%struct.anon = type { ptr, ptr }
%union.anon = type { ptr }
%union.anon.0 = type { %struct.anon.1 }
%struct.anon.1 = type { ptr, ptr }
%union.anon.2 = type { %struct.anon.3 }
%struct.anon.3 = type { %struct.anon.4, %struct.timeval }
%struct.anon.4 = type { ptr, ptr }
%struct.timeval = type { i64, i64 }
%"struct.folly::EventCallback" = type { i32, %union.anon.7 }
%union.anon.7 = type { ptr }
%"class.std::reference_wrapper.9" = type { ptr }

; Function Attrs: mustprogress nounwind uwtable
define linkonce_odr noundef ptr @_ZNSt17reference_wrapperIKsE6_S_funERS0_(ptr noundef nonnull align 2 dereferenceable(2) %0) #0 comdat align 2 {
  %2 = alloca ptr, align 8
  store ptr %0, ptr %2, align 8, !tbaa !62
  %3 = load ptr, ptr %2, align 8, !tbaa !62
  ret ptr %3
}

; Function Attrs: mustprogress nounwind uwtable
define linkonce_odr void @_ZNSt17reference_wrapperIKsEC2IRS0_vPS0_EEOT_(ptr noundef nonnull align 8 dereferenceable(8) %0, ptr noundef nonnull align 2 dereferenceable(2) %1) unnamed_addr #0 comdat align 2 {
  %3 = alloca ptr, align 8
  %4 = alloca ptr, align 8
  store ptr %0, ptr %3, align 8, !tbaa !60
  store ptr %1, ptr %4, align 8, !tbaa !62
  %5 = load ptr, ptr %3, align 8
  %6 = getelementptr inbounds nuw %"class.std::reference_wrapper.9", ptr %5, i32 0, i32 0
  %7 = load ptr, ptr %4, align 8, !tbaa !62
  %8 = call noundef ptr @_ZNSt17reference_wrapperIKsE6_S_funERS0_(ptr noundef nonnull align 2 dereferenceable(2) %7) #14
  store ptr %8, ptr %6, align 8, !tbaa !64
  ret void
}

; Function Attrs: mustprogress nounwind uwtable
define linkonce_odr noundef nonnull align 2 dereferenceable(2) ptr @_ZNKSt17reference_wrapperIKsE3getEv(ptr noundef nonnull align 8 dereferenceable(8) %0) #0 comdat align 2 {
  %2 = alloca ptr, align 8
  store ptr %0, ptr %2, align 8, !tbaa !60
  %3 = load ptr, ptr %2, align 8
  %4 = getelementptr inbounds nuw %"class.std::reference_wrapper.9", ptr %3, i32 0, i32 0
  %5 = load ptr, ptr %4, align 8, !tbaa !64
  ret ptr %5
}

; Function Attrs: inlinehint mustprogress nounwind uwtable
define linkonce_odr ptr @_ZSt4crefIsESt17reference_wrapperIKT_ERS2_(ptr noundef nonnull align 2 dereferenceable(2) %0) #3 comdat {
  %2 = alloca %"class.std::reference_wrapper.9", align 8
  %3 = alloca ptr, align 8
  store ptr %0, ptr %3, align 8, !tbaa !62
  %4 = load ptr, ptr %3, align 8, !tbaa !62
  call void @_ZNSt17reference_wrapperIKsEC2IRS0_vPS0_EEOT_(ptr noundef nonnull align 8 dereferenceable(8) %2, ptr noundef nonnull align 2 dereferenceable(2) %4) #14
  %5 = getelementptr inbounds nuw %"class.std::reference_wrapper.9", ptr %2, i32 0, i32 0
  %6 = load ptr, ptr %5, align 8
  ret ptr %6
}

; Function Attrs: mustprogress nounwind uwtable
define linkonce_odr noundef nonnull align 2 dereferenceable(2) ptr @_ZNKSt17reference_wrapperIKsEcvRS0_Ev(ptr noundef nonnull align 8 dereferenceable(8) %0) #0 comdat align 2 {
  %2 = alloca ptr, align 8
  store ptr %0, ptr %2, align 8, !tbaa !60
  %3 = load ptr, ptr %2, align 8
  %4 = call noundef nonnull align 2 dereferenceable(2) ptr @_ZNKSt17reference_wrapperIKsE3getEv(ptr noundef nonnull align 8 dereferenceable(8) %3) #14
  ret ptr %4
}

; Function Attrs: inlinehint mustprogress nounwind uwtable
define linkonce_odr ptr @_ZN5folly15event_ref_flagsEPK5event(ptr noundef %0) #3 comdat {
  %2 = alloca %"class.std::reference_wrapper.9", align 8
  %3 = alloca ptr, align 8
  store ptr %0, ptr %3, align 8, !tbaa !48
  %4 = load ptr, ptr %3, align 8, !tbaa !48
  %5 = getelementptr inbounds nuw %struct.event, ptr %4, i32 0, i32 0
  %6 = getelementptr inbounds nuw %struct.event_callback, ptr %5, i32 0, i32 1
  %7 = call ptr @_ZSt4crefIsESt17reference_wrapperIKT_ERS2_(ptr noundef nonnull align 2 dereferenceable(2) %6) #14
  %8 = getelementptr inbounds nuw %"class.std::reference_wrapper.9", ptr %2, i32 0, i32 0
  store ptr %7, ptr %8, align 8
  %9 = getelementptr inbounds nuw %"class.std::reference_wrapper.9", ptr %2, i32 0, i32 0
  %10 = load ptr, ptr %9, align 8
  ret ptr %10
}

; Function Attrs: mustprogress uwtable
define linkonce_odr noundef zeroext i1 @_ZN5folly9EventUtil17isEventRegisteredEPK5event(ptr noundef %0) #1 comdat align 2 {
  %2 = alloca ptr, align 8
  %3 = alloca %"class.std::reference_wrapper.9", align 8
  store ptr %0, ptr %2, align 8, !tbaa !48
  call void @llvm.lifetime.start.p0(i64 8, ptr %3) #14
  %4 = load ptr, ptr %2, align 8, !tbaa !48
  %5 = call ptr @_ZN5folly15event_ref_flagsEPK5event(ptr noundef %4)
  %6 = getelementptr inbounds nuw %"class.std::reference_wrapper.9", ptr %3, i32 0, i32 0
  store ptr %5, ptr %6, align 8
  %7 = call noundef nonnull align 2 dereferenceable(2) ptr @_ZNKSt17reference_wrapperIKsEcvRS0_Ev(ptr noundef nonnull align 8 dereferenceable(8) %3) #14
  %8 = load i16, ptr %7, align 2, !tbaa !39
  %9 = sext i16 %8 to i32
  %10 = and i32 %9, 15
  %11 = icmp ne i32 %10, 0
  call void @llvm.lifetime.end.p0(i64 8, ptr %3) #14
  ret i1 %11
}

; Function Attrs: mustprogress uwtable
define linkonce_odr noundef zeroext i1 @_ZNK5folly14EventBaseEvent17isEventRegisteredEv(ptr noundef nonnull align 8 dereferenceable(168) %0) #1 comdat align 2 {
  %2 = alloca ptr, align 8
  store ptr %0, ptr %2, align 8, !tbaa !33
  %3 = load ptr, ptr %2, align 8
  %4 = getelementptr inbounds nuw %"class.folly::EventBaseEvent", ptr %3, i32 0, i32 0
  %5 = call noundef zeroext i1 @_ZN5folly9EventUtil17isEventRegisteredEPK5event(ptr noundef %4)
  ret i1 %5
}

; Function Attrs: mustprogress uwtable
define linkonce_odr noundef zeroext i1 @_ZNK5folly12EventHandler19isHandlerRegisteredEv(ptr noundef nonnull align 8 dereferenceable(184) %0) #1 comdat align 2 {
  %2 = alloca ptr, align 8
  store ptr %0, ptr %2, align 8, !tbaa !7
  %3 = load ptr, ptr %2, align 8
  %4 = getelementptr inbounds nuw %"class.folly::EventHandler", ptr %3, i32 0, i32 1
  %5 = call noundef zeroext i1 @_ZNK5folly14EventBaseEvent17isEventRegisteredEv(ptr noundef nonnull align 8 dereferenceable(168) %4)
  ret i1 %5
}

; Function Attrs: mustprogress uwtable
define void @_ZN5folly12EventHandler17unregisterHandlerEv(ptr noundef nonnull align 8 dereferenceable(184) %0) #1 align 2 {
  %2 = alloca ptr, align 8
  store ptr %0, ptr %2, align 8, !tbaa !7
  %3 = load ptr, ptr %2, align 8
  %4 = call noundef zeroext i1 @_ZNK5folly12EventHandler19isHandlerRegisteredEv(ptr noundef nonnull align 8 dereferenceable(184) %3)
  br i1 %4, label %5, label %8

5:                                                ; preds = %1
  %6 = getelementptr inbounds nuw %"class.folly::EventHandler", ptr %3, i32 0, i32 1
  %7 = call noundef i32 @_ZN5folly14EventBaseEvent12eb_event_delEv(ptr noundef nonnull align 8 dereferenceable(168) %6)
  br label %8

8:                                                ; preds = %5, %1
  ret void
}