; Function Attrs: mustprogress uwtable
define void @_ZN5folly12EventHandler17unregisterHandlerEv(ptr noundef nonnull align 8 dereferenceable(184) %0) local_unnamed_addr #1 align 2 {
  %2 = getelementptr inbounds nuw i8, ptr %0, i64 24
  %3 = load i16, ptr %2, align 8, !tbaa !30
  %4 = and i16 %3, 15
  %.not = icmp eq i16 %4, 0
  br i1 %.not, label %8, label %5

5:                                                ; preds = %1
  %6 = getelementptr inbounds nuw i8, ptr %0, i64 8
  %7 = tail call noundef i32 @_ZN5folly14EventBaseEvent12eb_event_delEv(ptr noundef nonnull align 8 dereferenceable(168) %6)
  br label %8

8:                                                ; preds = %5, %1
  ret void
}